; Function Attrs: nounwind uwtable
define hidden void @zim_SimpleXMLElement_registerXPathNamespace(ptr nocapture noundef readonly %0, ptr nocapture noundef writeonly %1) #1 {
  %3 = alloca i64, align 8
  %4 = alloca i64, align 8
  %5 = alloca ptr, align 8
  %6 = alloca ptr, align 8
  %7 = getelementptr inbounds i8, ptr %0, i64 44
  %8 = load i32, ptr %7, align 4
  %9 = call i32 (i32, ptr, ...) @zend_parse_parameters(i32 noundef %8, ptr noundef nonnull @.str.2, ptr noundef nonnull %5, ptr noundef nonnull %3, ptr noundef nonnull %6, ptr noundef nonnull %4) #14
  %10 = icmp eq i32 %9, -1
  br i1 %10, label %11, label %14

11:                                               ; preds = %2
  %12 = load ptr, ptr getelementptr inbounds (%struct._zend_executor_globals, ptr @executor_globals, i64 0, i32 50), align 8
  %13 = icmp ne ptr %12, null
  call void @llvm.assume(i1 %13)
  br label %36

14:                                               ; preds = %2
  %15 = getelementptr inbounds i8, ptr %0, i64 32
  %16 = load ptr, ptr %15, align 8
  %17 = getelementptr inbounds i8, ptr %16, i64 -88
  %18 = load ptr, ptr %17, align 8
  %.not = icmp eq ptr %18, null
  br i1 %.not, label %19, label %22

19:                                               ; preds = %14
  call void (ptr, ptr, ...) @zend_throw_error(ptr noundef null, ptr noundef nonnull @.str.1) #14
  %20 = load ptr, ptr getelementptr inbounds (%struct._zend_executor_globals, ptr @executor_globals, i64 0, i32 50), align 8
  %21 = icmp ne ptr %20, null
  call void @llvm.assume(i1 %21)
  br label %36

22:                                               ; preds = %14
  %23 = getelementptr inbounds i8, ptr %16, i64 -72
  %24 = load ptr, ptr %23, align 8
  %.not9 = icmp eq ptr %24, null
  br i1 %.not9, label %25, label %28

25:                                               ; preds = %22
  %26 = load ptr, ptr %18, align 8
  %27 = call ptr @xmlXPathNewContext(ptr noundef %26) #14
  store ptr %27, ptr %23, align 8
  br label %28

28:                                               ; preds = %25, %22
  %29 = phi ptr [ %27, %25 ], [ %24, %22 ]
  %30 = load ptr, ptr %5, align 8
  %31 = load ptr, ptr %6, align 8
  %32 = call i32 @xmlXPathRegisterNs(ptr noundef %29, ptr noundef %30, ptr noundef %31) #14
  %.not10 = icmp eq i32 %32, 0
  %33 = getelementptr inbounds i8, ptr %1, i64 8
  br i1 %.not10, label %35, label %34

34:                                               ; preds = %28
  store i32 2, ptr %33, align 8
  br label %36

35:                                               ; preds = %28
  store i32 3, ptr %33, align 8
  br label %36

36:                                               ; preds = %35, %34, %19, %11
  ret void
}